; Function Attrs: nounwind uwtable
define internal i32 @aea_read_packet(ptr noundef readonly captures(none) %0, ptr noundef %1) #1 {
  %3 = getelementptr inbounds nuw i8, ptr %0, i64 32
  %4 = load ptr, ptr %3, align 8, !tbaa !15
  %5 = getelementptr inbounds nuw i8, ptr %0, i64 48
  %6 = load ptr, ptr %5, align 8, !tbaa !45
  %7 = load ptr, ptr %6, align 8, !tbaa !46
  %8 = getelementptr inbounds nuw i8, ptr %7, i64 16
  %9 = load ptr, ptr %8, align 8, !tbaa !30
  %10 = getelementptr inbounds nuw i8, ptr %9, i64 156
  %11 = load i32, ptr %10, align 4, !tbaa !44
  %12 = tail call i32 @av_get_packet(ptr noundef %4, ptr noundef %1, i32 noundef %11) #5
  ret i32 %12
}